target datalayout = "e-m:e-p270:32:32-p271:32:32-p272:64:64-i64:64-i128:128-f80:128-n8:16:32:64-S128"
target triple = "x86_64-pc-linux-gnu"

@list_config_color_grep_slots.extra = internal global [1 x ptr] [ptr @.str], align 8
@color_grep_slots = internal global [9 x ptr] [ptr @.str.15, ptr @.str.16, ptr @.str.17, ptr @.str.18, ptr @.str.19, ptr @.str.20, ptr @.str.21, ptr @.str.22, ptr @.str.23], align 16
@.str.14 = private unnamed_addr constant [6 x i8] c"%s.%s\00", align 1

; Function Attrs: inlinehint nounwind uwtable
define internal void @list_config_item(ptr noundef %0, ptr noundef %1, ptr noundef %2) #2 {
  %4 = alloca ptr, align 8
  %5 = alloca ptr, align 8
  %6 = alloca ptr, align 8
  store ptr %0, ptr %4, align 8, !tbaa !4
  store ptr %1, ptr %5, align 8, !tbaa !9
  store ptr %2, ptr %6, align 8, !tbaa !9
  %7 = load ptr, ptr %4, align 8, !tbaa !4
  %8 = load ptr, ptr %5, align 8, !tbaa !9
  %9 = load ptr, ptr %6, align 8, !tbaa !9
  %10 = call ptr (ptr, ...) @xstrfmt(ptr noundef @.str.14, ptr noundef %8, ptr noundef %9)
  %11 = call ptr @string_list_append_nodup(ptr noundef %7, ptr noundef %10)
  ret void
}

; Function Attrs: nounwind uwtable
define dso_local void @list_config_color_grep_slots(ptr noundef %0, ptr noundef %1) #0 {
  %3 = alloca ptr, align 8
  %4 = alloca ptr, align 8
  %5 = alloca i64, align 8
  %6 = alloca i64, align 8
  store ptr %0, ptr %3, align 8, !tbaa !4
  store ptr %1, ptr %4, align 8, !tbaa !9
  call void @llvm.lifetime.start.p0(i64 8, ptr %5) #11
  store i64 0, ptr %5, align 8, !tbaa !11
  br label %7

7:                                                ; preds = %17, %2
  %8 = load i64, ptr %5, align 8, !tbaa !11
  %9 = icmp ult i64 %8, 1
  br i1 %9, label %11, label %10

10:                                               ; preds = %7
  call void @llvm.lifetime.end.p0(i64 8, ptr %5) #11
  br label %20

11:                                               ; preds = %7
  %12 = load ptr, ptr %3, align 8, !tbaa !4
  %13 = load ptr, ptr %4, align 8, !tbaa !9
  %14 = load i64, ptr %5, align 8, !tbaa !11
  %15 = getelementptr inbounds nuw [1 x ptr], ptr @list_config_color_grep_slots.extra, i64 0, i64 %14
  %16 = load ptr, ptr %15, align 8, !tbaa !9
  call void @list_config_item(ptr noundef %12, ptr noundef %13, ptr noundef %16)
  br label %17

17:                                               ; preds = %11
  %18 = load i64, ptr %5, align 8, !tbaa !11
  %19 = add i64 %18, 1
  store i64 %19, ptr %5, align 8, !tbaa !11
  br label %7, !llvm.loop !13

20:                                               ; preds = %10
  call void @llvm.lifetime.start.p0(i64 8, ptr %6) #11
  store i64 0, ptr %6, align 8, !tbaa !11
  br label %21

21:                                               ; preds = %37, %20
  %22 = load i64, ptr %6, align 8, !tbaa !11
  %23 = icmp ult i64 %22, 9
  br i1 %23, label %25, label %24

24:                                               ; preds = %21
  call void @llvm.lifetime.end.p0(i64 8, ptr %6) #11
  br label %40

25:                                               ; preds = %21
  %26 = load i64, ptr %6, align 8, !tbaa !11
  %27 = getelementptr inbounds nuw [9 x ptr], ptr @color_grep_slots, i64 0, i64 %26
  %28 = load ptr, ptr %27, align 8, !tbaa !9
  %29 = icmp ne ptr %28, null
  br i1 %29, label %30, label %36

30:                                               ; preds = %25
  %31 = load ptr, ptr %3, align 8, !tbaa !4
  %32 = load ptr, ptr %4, align 8, !tbaa !9
  %33 = load i64, ptr %6, align 8, !tbaa !11
  %34 = getelementptr inbounds nuw [9 x ptr], ptr @color_grep_slots, i64 0, i64 %33
  %35 = load ptr, ptr %34, align 8, !tbaa !9
  call void @list_config_item(ptr noundef %31, ptr noundef %32, ptr noundef %35)
  br label %36

36:                                               ; preds = %30, %25
  br label %37

37:                                               ; preds = %36
  %38 = load i64, ptr %6, align 8, !tbaa !11
  %39 = add i64 %38, 1
  store i64 %39, ptr %6, align 8, !tbaa !11
  br label %21, !llvm.loop !15

40:                                               ; preds = %24
  ret void
}