; Function Attrs: nounwind uwtable
define dso_local void @list_config_color_grep_slots(ptr noundef %0, ptr noundef %1) local_unnamed_addr #0 {
.critedge:
  %2 = tail call ptr (ptr, ...) @xstrfmt(ptr noundef nonnull @.str.14, ptr noundef %1, ptr noundef nonnull @.str) #18
  %3 = tail call ptr @string_list_append_nodup(ptr noundef %0, ptr noundef %2) #18
  br label %5

4:                                                ; preds = %11
  ret void

5:                                                ; preds = %.critedge, %11
  %.012 = phi i64 [ 0, %.critedge ], [ %12, %11 ]
  %6 = getelementptr inbounds nuw [9 x ptr], ptr @color_grep_slots, i64 0, i64 %.012
  %7 = load ptr, ptr %6, align 8, !tbaa !4
  %.not = icmp eq ptr %7, null
  br i1 %.not, label %11, label %8

8:                                                ; preds = %5
  %9 = tail call ptr (ptr, ...) @xstrfmt(ptr noundef nonnull @.str.14, ptr noundef %1, ptr noundef nonnull %7) #18
  %10 = tail call ptr @string_list_append_nodup(ptr noundef %0, ptr noundef %9) #18
  br label %11

11:                                               ; preds = %5, %8
  %12 = add nuw nsw i64 %.012, 1
  %exitcond.not = icmp eq i64 %12, 9
  br i1 %exitcond.not, label %4, label %5, !llvm.loop !9
}